; Function Attrs: nofree nounwind uwtable
define internal noundef i32 @H5O__linfo_debug(ptr readnone captures(none) %0, ptr noundef readonly captures(none) %1, ptr noundef captures(none) %2, i32 noundef %3, i32 noundef %4) #1 {
  %6 = load i8, ptr @H5O_init_g, align 1, !tbaa !3, !range !7, !noundef !8
  %7 = trunc nuw i8 %6 to i1
  %8 = load i8, ptr @H5_libterm_g, align 1, !range !7
  %9 = trunc nuw i8 %8 to i1
  %10 = xor i1 %9, true
  %11 = select i1 %7, i1 true, i1 %10
  br i1 %11, label %12, label %37, !prof !9

12:                                               ; preds = %5
  %13 = load i8, ptr %1, align 8, !tbaa !16, !range !7, !noundef !8
  %14 = trunc nuw i8 %13 to i1
  %15 = select i1 %14, ptr @.str.17, ptr @.str.18
  %16 = tail call i32 (ptr, ptr, ...) @fprintf(ptr noundef %2, ptr noundef nonnull @.str.14, i32 noundef %3, ptr noundef nonnull @.str.15, i32 noundef %4, ptr noundef nonnull @.str.16, ptr noundef nonnull %15) #7
  %17 = getelementptr inbounds nuw i8, ptr %1, i64 1
  %18 = load i8, ptr %17, align 1, !tbaa !18, !range !7, !noundef !8
  %19 = trunc nuw i8 %18 to i1
  %20 = select i1 %19, ptr @.str.17, ptr @.str.18
  %21 = tail call i32 (ptr, ptr, ...) @fprintf(ptr noundef %2, ptr noundef nonnull @.str.14, i32 noundef %3, ptr noundef nonnull @.str.15, i32 noundef %4, ptr noundef nonnull @.str.19, ptr noundef nonnull %20) #7
  %22 = getelementptr inbounds nuw i8, ptr %1, i64 24
  %23 = load i64, ptr %22, align 8, !tbaa !19
  %24 = tail call i32 (ptr, ptr, ...) @fprintf(ptr noundef %2, ptr noundef nonnull @.str.20, i32 noundef %3, ptr noundef nonnull @.str.15, i32 noundef %4, ptr noundef nonnull @.str.21, i64 noundef %23) #7
  %25 = getelementptr inbounds nuw i8, ptr %1, i64 8
  %26 = load i64, ptr %25, align 8, !tbaa !22
  %27 = tail call i32 (ptr, ptr, ...) @fprintf(ptr noundef %2, ptr noundef nonnull @.str.22, i32 noundef %3, ptr noundef nonnull @.str.15, i32 noundef %4, ptr noundef nonnull @.str.23, i64 noundef %26) #7
  %28 = getelementptr inbounds nuw i8, ptr %1, i64 32
  %29 = load i64, ptr %28, align 8, !tbaa !25
  %30 = tail call i32 (ptr, ptr, ...) @fprintf(ptr noundef %2, ptr noundef nonnull @.str.20, i32 noundef %3, ptr noundef nonnull @.str.15, i32 noundef %4, ptr noundef nonnull @.str.24, i64 noundef %29) #7
  %31 = getelementptr inbounds nuw i8, ptr %1, i64 40
  %32 = load i64, ptr %31, align 8, !tbaa !26
  %33 = tail call i32 (ptr, ptr, ...) @fprintf(ptr noundef %2, ptr noundef nonnull @.str.20, i32 noundef %3, ptr noundef nonnull @.str.15, i32 noundef %4, ptr noundef nonnull @.str.25, i64 noundef %32) #7
  %34 = getelementptr inbounds nuw i8, ptr %1, i64 16
  %35 = load i64, ptr %34, align 8, !tbaa !23
  %36 = tail call i32 (ptr, ptr, ...) @fprintf(ptr noundef %2, ptr noundef nonnull @.str.20, i32 noundef %3, ptr noundef nonnull @.str.15, i32 noundef %4, ptr noundef nonnull @.str.26, i64 noundef %35) #7
  br label %37

37:                                               ; preds = %12, %5
  ret i32 0
}